; Function Attrs: mustprogress noinline uwtable
define hidden noundef ptr @_ZN6google8protobuf5Arena18CreateMaybeMessageIN11opencv_onnx11TensorProtoEJEEEPT_PS1_DpOT0_(ptr noundef %0) local_unnamed_addr #17 align 2 personality ptr @__gxx_personality_v0 {
  %2 = icmp eq ptr %0, null
  br i1 %2, label %_ZN6google8protobuf5Arena14InternalHelperIN11opencv_onnx11TensorProtoEE3NewEv.exit, label %8

_ZN6google8protobuf5Arena14InternalHelperIN11opencv_onnx11TensorProtoEE3NewEv.exit: ; preds = %1
  %3 = tail call noalias noundef nonnull dereferenceable(208) ptr @_Znwm(i64 noundef 208) #24
  %4 = getelementptr inbounds nuw i8, ptr %3, i64 8
  store i64 0, ptr %4, align 8, !tbaa !33
  store ptr getelementptr inbounds nuw inrange(-16, 152) (i8, ptr @_ZTVN11opencv_onnx11TensorProtoE, i64 16), ptr %3, align 8, !tbaa !34
  %.ptr.i = getelementptr inbounds nuw i8, ptr %3, i64 16
  %5 = getelementptr inbounds nuw i8, ptr %3, i64 80
  %6 = getelementptr inbounds nuw i8, ptr %3, i64 128
  %7 = getelementptr inbounds nuw i8, ptr %3, i64 168
  tail call void @llvm.memset.p0.i64(ptr noundef nonnull align 8 dereferenceable(56) %.ptr.i, i8 0, i64 56, i1 false)
  tail call void @llvm.memset.p0.i64(ptr noundef nonnull align 8 dereferenceable(40) %5, i8 0, i64 40, i1 false)
  tail call void @llvm.memset.p0.i64(ptr noundef nonnull align 8 dereferenceable(32) %6, i8 0, i64 32, i1 false)
  store ptr @_ZN6google8protobuf8internal26fixed_address_empty_stringB5cxx11E, ptr %7, align 8, !tbaa !41
  br label %_ZN6google8protobuf5Arena21CreateMessageInternalIN11opencv_onnx11TensorProtoEEEPT_PS1_.exit

8:                                                ; preds = %1
  %9 = tail call noundef ptr @_ZN6google8protobuf5Arena23AllocateAlignedWithHookEmPKSt9type_info(ptr noundef nonnull align 8 dereferenceable(32) %0, i64 noundef 208, ptr noundef nonnull @_ZTIN11opencv_onnx11TensorProtoE)
  %10 = getelementptr inbounds nuw i8, ptr %9, i64 8
  %11 = ptrtoint ptr %0 to i64
  store i64 %11, ptr %10, align 8, !tbaa !33
  store ptr getelementptr inbounds nuw inrange(-16, 152) (i8, ptr @_ZTVN11opencv_onnx11TensorProtoE, i64 16), ptr %9, align 8, !tbaa !34
  %.ptr.i.i = getelementptr inbounds nuw i8, ptr %9, i64 16
  %12 = getelementptr inbounds nuw i8, ptr %9, i64 32
  tail call void @llvm.memset.p0.i64(ptr noundef nonnull align 8 dereferenceable(16) %.ptr.i.i, i8 0, i64 16, i1 false)
  store ptr %0, ptr %12, align 8, !tbaa !39
  %13 = getelementptr inbounds nuw i8, ptr %9, i64 40
  store i32 0, ptr %13, align 8, !tbaa !47
  %14 = getelementptr inbounds nuw i8, ptr %9, i64 44
  store i32 0, ptr %14, align 4, !tbaa !91
  %15 = getelementptr inbounds nuw i8, ptr %9, i64 48
  store ptr %0, ptr %15, align 8, !tbaa !36
  %16 = getelementptr inbounds nuw i8, ptr %9, i64 56
  store i32 0, ptr %16, align 8, !tbaa !63
  %17 = getelementptr inbounds nuw i8, ptr %9, i64 60
  store i32 0, ptr %17, align 4, !tbaa !243
  %18 = getelementptr inbounds nuw i8, ptr %9, i64 64
  store ptr %0, ptr %18, align 8, !tbaa !116
  %19 = getelementptr inbounds nuw i8, ptr %9, i64 80
  store ptr %0, ptr %19, align 8, !tbaa !40
  %20 = getelementptr inbounds nuw i8, ptr %9, i64 88
  %21 = getelementptr inbounds nuw i8, ptr %9, i64 112
  tail call void @llvm.memset.p0.i64(ptr noundef nonnull align 8 dereferenceable(24) %20, i8 0, i64 24, i1 false)
  store ptr %0, ptr %21, align 8, !tbaa !39
  %22 = getelementptr inbounds nuw i8, ptr %9, i64 128
  store i32 0, ptr %22, align 8, !tbaa !65
  %23 = getelementptr inbounds nuw i8, ptr %9, i64 132
  store i32 0, ptr %23, align 4, !tbaa !244
  %24 = getelementptr inbounds nuw i8, ptr %9, i64 136
  store ptr %0, ptr %24, align 8, !tbaa !117
  %25 = getelementptr inbounds nuw i8, ptr %9, i64 144
  store i32 0, ptr %25, align 8, !tbaa !67
  %26 = getelementptr inbounds nuw i8, ptr %9, i64 148
  store i32 0, ptr %26, align 4, !tbaa !245
  %27 = getelementptr inbounds nuw i8, ptr %9, i64 152
  store ptr %0, ptr %27, align 8, !tbaa !118
  %28 = getelementptr inbounds nuw i8, ptr %9, i64 168
  store ptr @_ZN6google8protobuf8internal26fixed_address_empty_stringB5cxx11E, ptr %28, align 8, !tbaa !41
  br label %_ZN6google8protobuf5Arena21CreateMessageInternalIN11opencv_onnx11TensorProtoEEEPT_PS1_.exit

_ZN6google8protobuf5Arena21CreateMessageInternalIN11opencv_onnx11TensorProtoEEEPT_PS1_.exit: ; preds = %_ZN6google8protobuf5Arena14InternalHelperIN11opencv_onnx11TensorProtoEE3NewEv.exit, %8
  %.sink4 = phi ptr [ %3, %_ZN6google8protobuf5Arena14InternalHelperIN11opencv_onnx11TensorProtoEE3NewEv.exit ], [ %9, %8 ]
  %29 = getelementptr inbounds nuw i8, ptr %.sink4, i64 176
  store ptr @_ZN6google8protobuf8internal26fixed_address_empty_stringB5cxx11E, ptr %29, align 8, !tbaa !41
  %30 = getelementptr inbounds nuw i8, ptr %.sink4, i64 184
  store ptr @_ZN6google8protobuf8internal26fixed_address_empty_stringB5cxx11E, ptr %30, align 8, !tbaa !41
  %31 = getelementptr inbounds nuw i8, ptr %.sink4, i64 192
  tail call void @llvm.memset.p0.i64(ptr noundef nonnull align 8 dereferenceable(12) %31, i8 0, i64 12, i1 false)
  ret ptr %.sink4
}